; ModuleID = '24/1988.c'
source_filename = "24/1988.c"
target datalayout = "e-m:e-p270:32:32-p271:32:32-p272:64:64-i64:64-f80:128-n8:16:32:64-S128"
target triple = "x86_64-pc-linux-gnu"

@.str = private unnamed_addr constant [6 x i8] c"%s\0A%s\00", align 1

; Function Attrs: noinline nounwind uwtable
define dso_local i32 @main() #0 {
  %1 = alloca i32, align 4
  %2 = alloca [10000 x i8], align 16
  %3 = alloca [50 x i8], align 16
  %4 = alloca [50 x i8], align 16
  %5 = alloca [50 x i8], align 16
  %6 = alloca i32, align 4
  %7 = alloca i32, align 4
  %8 = alloca i32, align 4
  %9 = alloca i32, align 4
  %10 = alloca i32, align 4
  %11 = alloca i32, align 4
  store i32 0, i32* %1, align 4
  %12 = getelementptr inbounds [10000 x i8], [10000 x i8]* %2, i64 0, i64 0
  %13 = call i32 (i8*, ...) bitcast (i32 (...)* @gets to i32 (i8*, ...)*)(i8* %12)
  store i32 0, i32* %6, align 4
  store i32 50, i32* %7, align 4
  store i32 0, i32* %8, align 4
  store i32 0, i32* %11, align 4
  store i32 0, i32* %9, align 4
  br label %14

14:                                               ; preds = %107, %0
  %15 = load i32, i32* %9, align 4
  %16 = sext i32 %15 to i64
  %17 = getelementptr inbounds [10000 x i8], [10000 x i8]* %2, i64 0, i64 0
  %18 = call i64 @strlen(i8* %17) #4
  %19 = icmp ult i64 %16, %18
  br i1 %19, label %20, label %110

20:                                               ; preds = %14
  %21 = load i32, i32* %9, align 4
  %22 = sext i32 %21 to i64
  %23 = getelementptr inbounds [10000 x i8], [10000 x i8]* %2, i64 0, i64 %22
  %24 = load i8, i8* %23, align 1
  %25 = sext i8 %24 to i32
  %26 = icmp ne i32 %25, 32
  br i1 %26, label %27, label %46

27:                                               ; preds = %20
  %28 = load i32, i32* %9, align 4
  %29 = sext i32 %28 to i64
  %30 = getelementptr inbounds [10000 x i8], [10000 x i8]* %2, i64 0, i64 %29
  %31 = load i8, i8* %30, align 1
  %32 = sext i8 %31 to i32
  %33 = icmp ne i32 %32, 44
  br i1 %33, label %34, label %46

34:                                               ; preds = %27
  %35 = load i32, i32* %11, align 4
  %36 = add nsw i32 %35, 1
  store i32 %36, i32* %11, align 4
  %37 = load i32, i32* %9, align 4
  %38 = sext i32 %37 to i64
  %39 = getelementptr inbounds [10000 x i8], [10000 x i8]* %2, i64 0, i64 %38
  %40 = load i8, i8* %39, align 1
  %41 = load i32, i32* %8, align 4
  %42 = sext i32 %41 to i64
  %43 = getelementptr inbounds [50 x i8], [50 x i8]* %3, i64 0, i64 %42
  store i8 %40, i8* %43, align 1
  %44 = load i32, i32* %8, align 4
  %45 = add nsw i32 %44, 1
  store i32 %45, i32* %8, align 4
  br label %46

46:                                               ; preds = %34, %27, %20
  %47 = load i32, i32* %9, align 4
  %48 = sext i32 %47 to i64
  %49 = getelementptr inbounds [10000 x i8], [10000 x i8]* %2, i64 0, i64 %48
  %50 = load i8, i8* %49, align 1
  %51 = sext i8 %50 to i32
  %52 = icmp eq i32 %51, 32
  br i1 %52, label %60, label %53

53:                                               ; preds = %46
  %54 = load i32, i32* %9, align 4
  %55 = sext i32 %54 to i64
  %56 = getelementptr inbounds [10000 x i8], [10000 x i8]* %2, i64 0, i64 %55
  %57 = load i8, i8* %56, align 1
  %58 = sext i8 %57 to i32
  %59 = icmp eq i32 %58, 44
  br i1 %59, label %60, label %76

60:                                               ; preds = %53, %46
  %61 = load i32, i32* %9, align 4
  %62 = sub nsw i32 %61, 1
  %63 = sext i32 %62 to i64
  %64 = getelementptr inbounds [10000 x i8], [10000 x i8]* %2, i64 0, i64 %63
  %65 = load i8, i8* %64, align 1
  %66 = sext i8 %65 to i32
  %67 = icmp ne i32 %66, 32
  br i1 %67, label %68, label %76

68:                                               ; preds = %60
  %69 = load i32, i32* %9, align 4
  %70 = sub nsw i32 %69, 1
  %71 = sext i32 %70 to i64
  %72 = getelementptr inbounds [10000 x i8], [10000 x i8]* %2, i64 0, i64 %71
  %73 = load i8, i8* %72, align 1
  %74 = sext i8 %73 to i32
  %75 = icmp ne i32 %74, 44
  br i1 %75, label %84, label %76

76:                                               ; preds = %68, %60, %53
  %77 = load i32, i32* %9, align 4
  %78 = add nsw i32 %77, 1
  %79 = sext i32 %78 to i64
  %80 = getelementptr inbounds [10000 x i8], [10000 x i8]* %2, i64 0, i64 %79
  %81 = load i8, i8* %80, align 1
  %82 = sext i8 %81 to i32
  %83 = icmp eq i32 %82, 0
  br i1 %83, label %84, label %106

84:                                               ; preds = %76, %68
  %85 = load i32, i32* %8, align 4
  %86 = sext i32 %85 to i64
  %87 = getelementptr inbounds [50 x i8], [50 x i8]* %3, i64 0, i64 %86
  store i8 0, i8* %87, align 1
  %88 = load i32, i32* %6, align 4
  %89 = load i32, i32* %11, align 4
  %90 = icmp slt i32 %88, %89
  br i1 %90, label %91, label %96

91:                                               ; preds = %84
  %92 = load i32, i32* %11, align 4
  store i32 %92, i32* %6, align 4
  %93 = getelementptr inbounds [50 x i8], [50 x i8]* %4, i64 0, i64 0
  %94 = getelementptr inbounds [50 x i8], [50 x i8]* %3, i64 0, i64 0
  %95 = call i8* @strcpy(i8* %93, i8* %94) #5
  br label %96

96:                                               ; preds = %91, %84
  %97 = load i32, i32* %7, align 4
  %98 = load i32, i32* %11, align 4
  %99 = icmp sgt i32 %97, %98
  br i1 %99, label %100, label %105

100:                                              ; preds = %96
  %101 = load i32, i32* %11, align 4
  store i32 %101, i32* %7, align 4
  %102 = getelementptr inbounds [50 x i8], [50 x i8]* %5, i64 0, i64 0
  %103 = getelementptr inbounds [50 x i8], [50 x i8]* %3, i64 0, i64 0
  %104 = call i8* @strcpy(i8* %102, i8* %103) #5
  br label %105

105:                                              ; preds = %100, %96
  store i32 0, i32* %11, align 4
  store i32 0, i32* %8, align 4
  br label %106

106:                                              ; preds = %105, %76
  br label %107

107:                                              ; preds = %106
  %108 = load i32, i32* %9, align 4
  %109 = add nsw i32 %108, 1
  store i32 %109, i32* %9, align 4
  br label %14

110:                                              ; preds = %14
  %111 = load i32, i32* %6, align 4
  %112 = sext i32 %111 to i64
  %113 = getelementptr inbounds [50 x i8], [50 x i8]* %4, i64 0, i64 %112
  store i8 0, i8* %113, align 1
  %114 = getelementptr inbounds [50 x i8], [50 x i8]* %4, i64 0, i64 0
  %115 = getelementptr inbounds [50 x i8], [50 x i8]* %5, i64 0, i64 0
  %116 = call i32 (i8*, ...) @printf(i8* getelementptr inbounds ([6 x i8], [6 x i8]* @.str, i64 0, i64 0), i8* %114, i8* %115)
  ret i32 0
}

declare dso_local i32 @gets(...) #1

; Function Attrs: nounwind readonly
declare dso_local i64 @strlen(i8*) #2

; Function Attrs: nounwind
declare dso_local i8* @strcpy(i8*, i8*) #3

declare dso_local i32 @printf(i8*, ...) #1


!llvm.module.flags = !{!0}
!llvm.ident = !{!1}

!0 = !{i32 1, !"wchar_size", i32 4}
!1 = !{!"clang version 10.0.0-4ubuntu1 "}
